0000000000206180 B __bss_start
0000000000004610 T CppPyIF
0000000000003870 T CppPyIF_capturePhoto
0000000000003020 T CppPyIF_getBatteryLevel
0000000000003010 T CppPyIF_getBuff
0000000000003270 T CppPyIF_killDrone
0000000000003790 T CppPyIF_landDrone
0000000000003350 T CppPyIF_moveRelativeMetres
0000000000003950 T CppPyIF_setForward
0000000000003500 T CppPyIF_setHeading
0000000000003a30 T CppPyIF_setTiltPan
0000000000003190 T CppPyIF_takeoffDrone
                 U __cxa_atexit
                 w __cxa_finalize
0000000000206180 D _edata
00000000002061c8 B _end
0000000000004b44 T _fini
                 w __gmon_start__
                 U __gxx_personality_v0
0000000000002b98 T _init
                 w _ITM_deregisterTMCloneTable
                 w _ITM_registerTMCloneTable
                 w __pthread_key_create
                 U __stack_chk_fail
                 U strcmp
                 U _Unwind_Resume
                 U _ZdlPv
                 U _ZdlPvm
0000000000003880 T _ZN12Bebop2CtrlIF10setForwardEv
0000000000003430 T _ZN12Bebop2CtrlIF10setHeadingEf
0000000000003960 T _ZN12Bebop2CtrlIF10setTiltPanEff
0000000000003bc0 T _ZN12Bebop2CtrlIF10startDroneEv
00000000000037a0 T _ZN12Bebop2CtrlIF12capturePhotoEv
0000000000003030 T _ZN12Bebop2CtrlIF12takeoffDroneEv
0000000000003360 T _ZN12Bebop2CtrlIF13moveDirectionEN8wscDrone13MoveDirectionE
0000000000003000 T _ZN12Bebop2CtrlIF14getFrameBufferEv
0000000000002ff0 T _ZN12Bebop2CtrlIF15getBatteryLevelEv
0000000000003510 T _ZN12Bebop2CtrlIF17setFlightAltitudeEv
0000000000003280 T _ZN12Bebop2CtrlIF18moveRelativeMetresEff
00000000000031a0 T _ZN12Bebop2CtrlIF9killDroneEv
0000000000003610 T _ZN12Bebop2CtrlIF9landDroneEv
0000000000003a40 T _ZN12Bebop2CtrlIF9stopDroneEv
0000000000003fc0 T _ZN12Bebop2CtrlIFC1Ei
0000000000003fc0 T _ZN12Bebop2CtrlIFC2Ei
0000000000004ad0 T _ZN13Bebop2FrameIF13getRawPointerEv
0000000000004ae0 T _ZN13Bebop2FrameIF17getFrameSizeBytesEv
0000000000004b00 T _ZN13Bebop2FrameIF8getWidthEv
0000000000004af0 T _ZN13Bebop2FrameIF9getHeightEv
0000000000004b10 T _ZN13Bebop2FrameIFC1Ejj
0000000000004b10 T _ZN13Bebop2FrameIFC2Ejj
0000000000004a50 W _ZN13Bebop2FrameIFD0Ev
0000000000004670 W _ZN13Bebop2FrameIFD1Ev
0000000000004670 W _ZN13Bebop2FrameIFD2Ev
                 U _ZN8wscDrone11VideoDriver4stopEv
                 U _ZN8wscDrone11VideoDriver5startEv
                 U _ZN8wscDrone11waitSecondsEi
                 U _ZN8wscDrone13CameraControl10setForwardEv
                 U _ZN8wscDrone13CameraControl10setTiltPanEff
                 U _ZN8wscDrone13CameraControl12capturePhotoEv
                 U _ZN8wscDrone15DroneController4stopEv
                 U _ZN8wscDrone15DroneController5startEv
                 U _ZN8wscDrone5Pilot10setHeadingEf
                 U _ZN8wscDrone5Pilot13moveDirectionENS_13MoveDirectionE
                 U _ZN8wscDrone5Pilot14CUT_THE_MOTORSEv
                 U _ZN8wscDrone5Pilot18moveRelativeMetresEfffb
                 U _ZN8wscDrone5Pilot4landEv
                 U _ZN8wscDrone5Pilot7takeOffEv
                 U _ZN8wscDrone6Bebop2C1ENS_8CallsignESt10shared_ptrI10VideoFrameE
                 U _Znam
                 U _ZNKSt5ctypeIcE13_M_widen_initEv
0000000000004660 W _ZNKSt5ctypeIcE8do_widenEc
                 U _ZNSo3putEc
                 U _ZNSo5flushEv
0000000000004a60 W _ZNSt16_Sp_counted_baseILN9__gnu_cxx12_Lock_policyE2EE10_M_releaseEv
0000000000004750 W _ZNSt23_Sp_counted_ptr_inplaceI13Bebop2FrameIFSaIS0_ELN9__gnu_cxx12_Lock_policyE2EE10_M_destroyEv
0000000000004760 W _ZNSt23_Sp_counted_ptr_inplaceI13Bebop2FrameIFSaIS0_ELN9__gnu_cxx12_Lock_policyE2EE10_M_disposeEv
00000000000046a0 W _ZNSt23_Sp_counted_ptr_inplaceI13Bebop2FrameIFSaIS0_ELN9__gnu_cxx12_Lock_policyE2EE14_M_get_deleterERKSt9type_info
0000000000004720 W _ZNSt23_Sp_counted_ptr_inplaceI13Bebop2FrameIFSaIS0_ELN9__gnu_cxx12_Lock_policyE2EED0Ev
0000000000004690 W _ZNSt23_Sp_counted_ptr_inplaceI13Bebop2FrameIFSaIS0_ELN9__gnu_cxx12_Lock_policyE2EED1Ev
0000000000004690 W _ZNSt23_Sp_counted_ptr_inplaceI13Bebop2FrameIFSaIS0_ELN9__gnu_cxx12_Lock_policyE2EED2Ev
0000000000004740 W _ZNSt23_Sp_counted_ptr_inplaceIN8wscDrone6Bebop2ESaIS1_ELN9__gnu_cxx12_Lock_policyE2EE10_M_destroyEv
0000000000004790 W _ZNSt23_Sp_counted_ptr_inplaceIN8wscDrone6Bebop2ESaIS1_ELN9__gnu_cxx12_Lock_policyE2EE10_M_disposeEv
00000000000046e0 W _ZNSt23_Sp_counted_ptr_inplaceIN8wscDrone6Bebop2ESaIS1_ELN9__gnu_cxx12_Lock_policyE2EE14_M_get_deleterERKSt9type_info
0000000000004730 W _ZNSt23_Sp_counted_ptr_inplaceIN8wscDrone6Bebop2ESaIS1_ELN9__gnu_cxx12_Lock_policyE2EED0Ev
0000000000004680 W _ZNSt23_Sp_counted_ptr_inplaceIN8wscDrone6Bebop2ESaIS1_ELN9__gnu_cxx12_Lock_policyE2EED1Ev
0000000000004680 W _ZNSt23_Sp_counted_ptr_inplaceIN8wscDrone6Bebop2ESaIS1_ELN9__gnu_cxx12_Lock_policyE2EED2Ev
                 U _ZNSt7__cxx1112basic_stringIcSt11char_traitsIcESaIcEED1Ev
                 U _ZNSt8ios_base4InitC1Ev
                 U _ZNSt8ios_base4InitD1Ev
                 U _Znwm
                 U _ZSt16__ostream_insertIcSt11char_traitsIcEERSt13basic_ostreamIT_T0_ES6_PKS3_l
                 U _ZSt16__throw_bad_castv
                 U _ZSt4cout
0000000000205d40 V _ZTI10VideoFrame
0000000000205d50 V _ZTI13Bebop2FrameIF
0000000000205c68 V _ZTISt11_Mutex_baseILN9__gnu_cxx12_Lock_policyE2EE
0000000000205c78 V _ZTISt16_Sp_counted_baseILN9__gnu_cxx12_Lock_policyE2EE
0000000000205c90 V _ZTISt19_Sp_make_shared_tag
0000000000205ca0 V _ZTISt23_Sp_counted_ptr_inplaceI13Bebop2FrameIFSaIS0_ELN9__gnu_cxx12_Lock_policyE2EE
0000000000205cb8 V _ZTISt23_Sp_counted_ptr_inplaceIN8wscDrone6Bebop2ESaIS1_ELN9__gnu_cxx12_Lock_policyE2EE
0000000000004d18 V _ZTS10VideoFrame
0000000000004d30 V _ZTS13Bebop2FrameIF
0000000000004bc0 V _ZTSSt11_Mutex_baseILN9__gnu_cxx12_Lock_policyE2EE
0000000000004c00 V _ZTSSt16_Sp_counted_baseILN9__gnu_cxx12_Lock_policyE2EE
0000000000004c40 V _ZTSSt19_Sp_make_shared_tag
0000000000004c60 V _ZTSSt23_Sp_counted_ptr_inplaceI13Bebop2FrameIFSaIS0_ELN9__gnu_cxx12_Lock_policyE2EE
0000000000004cc0 V _ZTSSt23_Sp_counted_ptr_inplaceIN8wscDrone6Bebop2ESaIS1_ELN9__gnu_cxx12_Lock_policyE2EE
0000000000205d68 V _ZTV13Bebop2FrameIF
                 U _ZTVN10__cxxabiv117__class_type_infoE
                 U _ZTVN10__cxxabiv120__si_class_type_infoE
0000000000205cd0 V _ZTVSt23_Sp_counted_ptr_inplaceI13Bebop2FrameIFSaIS0_ELN9__gnu_cxx12_Lock_policyE2EE
0000000000205d08 V _ZTVSt23_Sp_counted_ptr_inplaceIN8wscDrone6Bebop2ESaIS1_ELN9__gnu_cxx12_Lock_policyE2EE
